; Function Attrs: inlinehint nounwind uwtable
define internal fastcc ptr @_BlocksOutputBuffer_Finish(ptr noundef nonnull captures(none) %0, i64 noundef %1) unnamed_addr #4 {
  %3 = load ptr, ptr %0, align 8, !tbaa !29
  %4 = getelementptr i8, ptr %3, i64 16
  %.val55 = load i64, ptr %4, align 8, !tbaa !25
  %5 = icmp eq i64 %.val55, 1
  %6 = icmp eq i64 %1, 0
  %or.cond = and i1 %6, %5
  br i1 %or.cond, label %._crit_edge61, label %7

._crit_edge61:                                    ; preds = %2
  %.phi.trans.insert = getelementptr inbounds nuw i8, ptr %3, i64 24
  %.pre = load ptr, ptr %.phi.trans.insert, align 8, !tbaa !32
  br label %16

7:                                                ; preds = %2
  %8 = icmp eq i64 %.val55, 2
  br i1 %8, label %9, label %28

9:                                                ; preds = %7
  %10 = getelementptr inbounds nuw i8, ptr %3, i64 24
  %11 = load ptr, ptr %10, align 8, !tbaa !32
  %12 = getelementptr i8, ptr %11, i64 8
  %13 = load ptr, ptr %12, align 8, !tbaa !15
  %14 = getelementptr i8, ptr %13, i64 16
  %.val54 = load i64, ptr %14, align 8, !tbaa !25
  %15 = icmp eq i64 %.val54, %1
  br i1 %15, label %16, label %28

16:                                               ; preds = %._crit_edge61, %9
  %17 = phi ptr [ %.pre, %._crit_edge61 ], [ %11, %9 ]
  %18 = load ptr, ptr %17, align 8, !tbaa !15
  %19 = load i32, ptr %18, align 8, !tbaa !14
  %20 = icmp slt i32 %19, 0
  br i1 %20, label %Py_INCREF.exit.thread, label %Py_INCREF.exit

Py_INCREF.exit:                                   ; preds = %16
  %21 = add nuw i32 %19, 1
  store i32 %21, ptr %18, align 8, !tbaa !14
  %.pre62 = load ptr, ptr %0, align 8, !tbaa !15
  %.not48 = icmp eq ptr %.pre62, null
  br i1 %.not48, label %Py_DECREF.exit50, label %Py_INCREF.exit.thread

Py_INCREF.exit.thread:                            ; preds = %16, %Py_INCREF.exit
  %22 = phi ptr [ %.pre62, %Py_INCREF.exit ], [ %3, %16 ]
  store ptr null, ptr %0, align 8, !tbaa !15
  %23 = load i32, ptr %22, align 8, !tbaa !14
  %.not.i49 = icmp sgt i32 %23, -1
  br i1 %.not.i49, label %24, label %Py_DECREF.exit50

24:                                               ; preds = %Py_INCREF.exit.thread
  %25 = add nsw i32 %23, -1
  store i32 %25, ptr %22, align 8, !tbaa !14
  %26 = icmp eq i32 %25, 0
  br i1 %26, label %27, label %Py_DECREF.exit50

27:                                               ; preds = %24
  tail call void @_Py_Dealloc(ptr noundef nonnull %22) #7
  br label %Py_DECREF.exit50

28:                                               ; preds = %9, %7
  %29 = getelementptr inbounds nuw i8, ptr %0, i64 8
  %30 = load i64, ptr %29, align 8, !tbaa !35
  %31 = sub i64 %30, %1
  %32 = tail call ptr @PyBytes_FromStringAndSize(ptr noundef null, i64 noundef %31) #7
  %33 = icmp eq ptr %32, null
  br i1 %33, label %34, label %36

34:                                               ; preds = %28
  %35 = load ptr, ptr @PyExc_MemoryError, align 8, !tbaa !15
  tail call void @PyErr_SetString(ptr noundef %35, ptr noundef nonnull @unable_allocate_msg) #7
  br label %Py_DECREF.exit50

36:                                               ; preds = %28
  %37 = icmp sgt i64 %.val55, 0
  br i1 %37, label %38, label %58

38:                                               ; preds = %36
  %39 = getelementptr inbounds nuw i8, ptr %32, i64 32
  %40 = add nsw i64 %.val55, -1
  br i1 %5, label %._crit_edge, label %.lr.ph

.lr.ph:                                           ; preds = %38, %.lr.ph
  %.04257 = phi i64 [ %49, %.lr.ph ], [ 0, %38 ]
  %.04356 = phi ptr [ %48, %.lr.ph ], [ %39, %38 ]
  %41 = load ptr, ptr %0, align 8, !tbaa !29
  %42 = getelementptr inbounds nuw i8, ptr %41, i64 24
  %43 = load ptr, ptr %42, align 8, !tbaa !32
  %44 = getelementptr ptr, ptr %43, i64 %.04257
  %45 = load ptr, ptr %44, align 8, !tbaa !15
  %46 = getelementptr inbounds nuw i8, ptr %45, i64 32
  %47 = getelementptr i8, ptr %45, i64 16
  %.val53 = load i64, ptr %47, align 8, !tbaa !25
  tail call void @llvm.memcpy.p0.p0.i64(ptr align 1 %.04356, ptr nonnull align 1 %46, i64 %.val53, i1 false)
  %.val52 = load i64, ptr %47, align 8, !tbaa !25
  %48 = getelementptr i8, ptr %.04356, i64 %.val52
  %49 = add nuw nsw i64 %.04257, 1
  %exitcond.not = icmp eq i64 %49, %40
  br i1 %exitcond.not, label %._crit_edge, label %.lr.ph, !llvm.loop !62

._crit_edge:                                      ; preds = %.lr.ph, %38
  %.043.lcssa = phi ptr [ %39, %38 ], [ %48, %.lr.ph ]
  %.042.lcssa = phi i64 [ 0, %38 ], [ %40, %.lr.ph ]
  %50 = load ptr, ptr %0, align 8, !tbaa !29
  %51 = getelementptr inbounds nuw i8, ptr %50, i64 24
  %52 = load ptr, ptr %51, align 8, !tbaa !32
  %53 = getelementptr ptr, ptr %52, i64 %.042.lcssa
  %54 = load ptr, ptr %53, align 8, !tbaa !15
  %55 = getelementptr inbounds nuw i8, ptr %54, i64 32
  %56 = getelementptr i8, ptr %54, i64 16
  %.val = load i64, ptr %56, align 8, !tbaa !25
  %57 = sub i64 %.val, %1
  tail call void @llvm.memcpy.p0.p0.i64(ptr align 1 %.043.lcssa, ptr nonnull align 1 %55, i64 %57, i1 false)
  br label %58

58:                                               ; preds = %._crit_edge, %36
  %59 = load ptr, ptr %0, align 8, !tbaa !15
  %.not = icmp eq ptr %59, null
  br i1 %.not, label %Py_DECREF.exit50, label %60

60:                                               ; preds = %58
  store ptr null, ptr %0, align 8, !tbaa !15
  %61 = load i32, ptr %59, align 8, !tbaa !14
  %.not.i = icmp sgt i32 %61, -1
  br i1 %.not.i, label %62, label %Py_DECREF.exit50

62:                                               ; preds = %60
  %63 = add nsw i32 %61, -1
  store i32 %63, ptr %59, align 8, !tbaa !14
  %64 = icmp eq i32 %63, 0
  br i1 %64, label %65, label %Py_DECREF.exit50

65:                                               ; preds = %62
  tail call void @_Py_Dealloc(ptr noundef nonnull %59) #7
  br label %Py_DECREF.exit50

Py_DECREF.exit50:                                 ; preds = %65, %62, %60, %27, %24, %Py_INCREF.exit.thread, %58, %Py_INCREF.exit, %34
  %.0 = phi ptr [ null, %34 ], [ %18, %Py_INCREF.exit ], [ %32, %58 ], [ %18, %Py_INCREF.exit.thread ], [ %18, %24 ], [ %18, %27 ], [ %32, %60 ], [ %32, %62 ], [ %32, %65 ]
  ret ptr %.0
}